target datalayout = "e-m:e-p270:32:32-p271:32:32-p272:64:64-i64:64-i128:128-f80:128-n8:16:32:64-S128"
target triple = "x86_64-pc-linux-gnu"

%struct.SDL_GPUDevice = type { ptr, ptr, ptr, ptr, ptr, ptr, ptr, ptr, ptr, ptr, ptr, ptr, ptr, ptr, ptr, ptr, ptr, ptr, ptr, ptr, ptr, ptr, ptr, ptr, ptr, ptr, ptr, ptr, ptr, ptr, ptr, ptr, ptr, ptr, ptr, ptr, ptr, ptr, ptr, ptr, ptr, ptr, ptr, ptr, ptr, ptr, ptr, ptr, ptr, ptr, ptr, ptr, ptr, ptr, ptr, ptr, ptr, ptr, ptr, ptr, ptr, ptr, ptr, ptr, ptr, ptr, ptr, ptr, ptr, ptr, ptr, ptr, ptr, ptr, ptr, ptr, ptr, ptr, ptr, ptr, ptr, ptr, ptr, ptr, ptr, i32, i8 }
%struct.CommandBufferCommonHeader = type { ptr, %struct.RenderPass, i8, %struct.Pass, i8, %struct.Pass, i8, i8, i8 }
%struct.RenderPass = type { ptr, i8, [4 x ptr], i32, ptr }
%struct.Pass = type { ptr, i8 }

@.str.4 = private unnamed_addr constant [26 x i8] c"Parameter '%s' is invalid\00", align 1
@.str.8 = private unnamed_addr constant [103 x i8] c"generated/home/dtcxzyw/WorkSpace/Projects/compilers/llvm-opt-benchmark/bench/sdl/SDL/src/gpu/SDL_gpu.c\00", align 1
@.str.225 = private unnamed_addr constant [12 x i8] c"render_pass\00", align 1
@.str.240 = private unnamed_addr constant [17 x i8] c"storage_textures\00", align 1
@SDL_BindGPUVertexStorageTextures_REAL.sdl_assert_data = internal global { i8, [3 x i8], i32, ptr, ptr, i32, [4 x i8], ptr, ptr } { i8 0, [3 x i8] zeroinitializer, i32 0, ptr @.str.229, ptr null, i32 0, [4 x i8] zeroinitializer, ptr null, ptr null }, align 8
@__func__.SDL_BindGPUVertexStorageTextures_REAL = private unnamed_addr constant [38 x i8] c"SDL_BindGPUVertexStorageTextures_REAL\00", align 1
@SDL_BindGPUVertexStorageTextures_REAL.sdl_assert_data.242 = internal global { i8, [3 x i8], i32, ptr, ptr, i32, [4 x i8], ptr, ptr } { i8 0, [3 x i8] zeroinitializer, i32 0, ptr @.str.243, ptr null, i32 0, [4 x i8] zeroinitializer, ptr null, ptr null }, align 8
@SDL_BindGPUVertexStorageTextures_REAL.sdl_assert_data.245 = internal global { i8, [3 x i8], i32, ptr, ptr, i32, [4 x i8], ptr, ptr } { i8 0, [3 x i8] zeroinitializer, i32 0, ptr @.str.246, ptr null, i32 0, [4 x i8] zeroinitializer, ptr null, ptr null }, align 8

; Function Attrs: nounwind uwtable
define hidden void @SDL_BindGPUVertexStorageTextures_REAL(ptr noundef %0, i32 noundef %1, ptr noundef %2, i32 noundef %3) #0 {
  %5 = alloca ptr, align 8
  %6 = alloca i32, align 4
  %7 = alloca ptr, align 8
  %8 = alloca i32, align 4
  %9 = alloca i32, align 4
  %10 = alloca i32, align 4
  %11 = alloca ptr, align 8
  %12 = alloca i32, align 4
  %13 = alloca i32, align 4
  %14 = alloca i32, align 4
  %15 = alloca i32, align 4
  %16 = alloca i32, align 4
  store ptr %0, ptr %5, align 8
  store i32 %1, ptr %6, align 4
  store ptr %2, ptr %7, align 8
  store i32 %3, ptr %8, align 4
  %17 = load ptr, ptr %5, align 8
  %18 = icmp eq ptr %17, null
  br i1 %18, label %19, label %21

19:                                               ; preds = %4
  %20 = call zeroext i1 (ptr, ...) @SDL_SetError_REAL(ptr noundef @.str.4, ptr noundef @.str.225)
  br label %174

21:                                               ; preds = %4
  %22 = load ptr, ptr %7, align 8
  %23 = icmp eq ptr %22, null
  br i1 %23, label %24, label %29

24:                                               ; preds = %21
  %25 = load i32, ptr %8, align 4
  %26 = icmp ugt i32 %25, 0
  br i1 %26, label %27, label %29

27:                                               ; preds = %24
  %28 = call zeroext i1 (ptr, ...) @SDL_SetError_REAL(ptr noundef @.str.4, ptr noundef @.str.240)
  br label %174

29:                                               ; preds = %24, %21
  %30 = load ptr, ptr %5, align 8
  %31 = getelementptr inbounds nuw %struct.RenderPass, ptr %30, i32 0, i32 0
  %32 = load ptr, ptr %31, align 8
  %33 = getelementptr inbounds nuw %struct.CommandBufferCommonHeader, ptr %32, i32 0, i32 0
  %34 = load ptr, ptr %33, align 8
  %35 = getelementptr inbounds nuw %struct.SDL_GPUDevice, ptr %34, i32 0, i32 86
  %36 = load i8, ptr %35, align 4, !range !5, !noundef !6
  %37 = trunc i8 %36 to i1
  br i1 %37, label %38, label %160

38:                                               ; preds = %29
  %39 = load ptr, ptr %5, align 8
  %40 = getelementptr inbounds nuw %struct.RenderPass, ptr %39, i32 0, i32 1
  %41 = load i8, ptr %40, align 8, !range !5, !noundef !6
  %42 = trunc i8 %41 to i1
  br i1 %42, label %60, label %43

43:                                               ; preds = %38
  br label %44

44:                                               ; preds = %43
  br label %45

45:                                               ; preds = %44, %56
  call void @llvm.lifetime.start.p0(i64 4, ptr %9) #6
  %46 = call i32 @SDL_ReportAssertion_REAL(ptr noundef @SDL_BindGPUVertexStorageTextures_REAL.sdl_assert_data, ptr noundef @__func__.SDL_BindGPUVertexStorageTextures_REAL, ptr noundef @.str.8, i32 noundef 1895)
  store i32 %46, ptr %9, align 4
  %47 = load i32, ptr %9, align 4
  %48 = icmp eq i32 %47, 0
  br i1 %48, label %49, label %50

49:                                               ; preds = %45
  store i32 4, ptr %10, align 4
  br label %56

50:                                               ; preds = %45
  %51 = load i32, ptr %9, align 4
  %52 = icmp eq i32 %51, 1
  br i1 %52, label %53, label %54

53:                                               ; preds = %50
  call void @llvm.debugtrap()
  br label %54

54:                                               ; preds = %53, %50
  br label %55

55:                                               ; preds = %54
  store i32 5, ptr %10, align 4
  br label %56

56:                                               ; preds = %55, %49
  call void @llvm.lifetime.end.p0(i64 4, ptr %9) #6
  %57 = load i32, ptr %10, align 4
  switch i32 %57, label %175 [
    i32 4, label %45
    i32 5, label %58
  ]

58:                                               ; preds = %56
  br label %59

59:                                               ; preds = %58
  br label %174

60:                                               ; preds = %38
  call void @llvm.lifetime.start.p0(i64 8, ptr %11) #6
  %61 = load ptr, ptr %5, align 8
  store ptr %61, ptr %11, align 8
  call void @llvm.lifetime.start.p0(i64 4, ptr %12) #6
  store i32 0, ptr %12, align 4
  br label %62

62:                                               ; preds = %112, %60
  %63 = load i32, ptr %12, align 4
  %64 = load ptr, ptr %11, align 8
  %65 = getelementptr inbounds nuw %struct.RenderPass, ptr %64, i32 0, i32 3
  %66 = load i32, ptr %65, align 8
  %67 = icmp ult i32 %63, %66
  br i1 %67, label %69, label %68

68:                                               ; preds = %62
  store i32 6, ptr %10, align 4
  call void @llvm.lifetime.end.p0(i64 4, ptr %12) #6
  br label %115

69:                                               ; preds = %62
  call void @llvm.lifetime.start.p0(i64 4, ptr %13) #6
  store i32 0, ptr %13, align 4
  br label %70

70:                                               ; preds = %108, %69
  %71 = load i32, ptr %13, align 4
  %72 = load i32, ptr %8, align 4
  %73 = icmp ult i32 %71, %72
  br i1 %73, label %75, label %74

74:                                               ; preds = %70
  store i32 9, ptr %10, align 4
  call void @llvm.lifetime.end.p0(i64 4, ptr %13) #6
  br label %111

75:                                               ; preds = %70
  %76 = load ptr, ptr %11, align 8
  %77 = getelementptr inbounds nuw %struct.RenderPass, ptr %76, i32 0, i32 2
  %78 = load i32, ptr %12, align 4
  %79 = zext i32 %78 to i64
  %80 = getelementptr inbounds nuw [4 x ptr], ptr %77, i64 0, i64 %79
  %81 = load ptr, ptr %80, align 8
  %82 = load ptr, ptr %7, align 8
  %83 = load i32, ptr %13, align 4
  %84 = zext i32 %83 to i64
  %85 = getelementptr inbounds nuw ptr, ptr %82, i64 %84
  %86 = load ptr, ptr %85, align 8
  %87 = icmp eq ptr %81, %86
  br i1 %87, label %88, label %107

88:                                               ; preds = %75
  br label %89

89:                                               ; preds = %88
  br label %90

90:                                               ; preds = %102, %89
  br label %91

91:                                               ; preds = %90
  call void @llvm.lifetime.start.p0(i64 4, ptr %14) #6
  %92 = call i32 @SDL_ReportAssertion_REAL(ptr noundef @SDL_BindGPUVertexStorageTextures_REAL.sdl_assert_data.242, ptr noundef @__func__.SDL_BindGPUVertexStorageTextures_REAL, ptr noundef @.str.8, i32 noundef 1896)
  store i32 %92, ptr %14, align 4
  %93 = load i32, ptr %14, align 4
  %94 = icmp eq i32 %93, 0
  br i1 %94, label %95, label %96

95:                                               ; preds = %91
  store i32 14, ptr %10, align 4
  br label %102

96:                                               ; preds = %91
  %97 = load i32, ptr %14, align 4
  %98 = icmp eq i32 %97, 1
  br i1 %98, label %99, label %100

99:                                               ; preds = %96
  call void @llvm.debugtrap()
  br label %100

100:                                              ; preds = %99, %96
  br label %101

101:                                              ; preds = %100
  store i32 15, ptr %10, align 4
  br label %102

102:                                              ; preds = %101, %95
  call void @llvm.lifetime.end.p0(i64 4, ptr %14) #6
  %103 = load i32, ptr %10, align 4
  switch i32 %103, label %175 [
    i32 14, label %90
    i32 15, label %104
  ]

104:                                              ; preds = %102
  br label %105

105:                                              ; preds = %104
  br label %106

106:                                              ; preds = %105
  br label %107

107:                                              ; preds = %106, %75
  br label %108

108:                                              ; preds = %107
  %109 = load i32, ptr %13, align 4
  %110 = add i32 %109, 1
  store i32 %110, ptr %13, align 4
  br label %70, !llvm.loop !22

111:                                              ; preds = %74
  br label %112

112:                                              ; preds = %111
  %113 = load i32, ptr %12, align 4
  %114 = add i32 %113, 1
  store i32 %114, ptr %12, align 4
  br label %62, !llvm.loop !23

115:                                              ; preds = %68
  call void @llvm.lifetime.start.p0(i64 4, ptr %15) #6
  store i32 0, ptr %15, align 4
  br label %116

116:                                              ; preds = %156, %115
  %117 = load i32, ptr %15, align 4
  %118 = load i32, ptr %8, align 4
  %119 = icmp ult i32 %117, %118
  br i1 %119, label %121, label %120

120:                                              ; preds = %116
  store i32 16, ptr %10, align 4
  call void @llvm.lifetime.end.p0(i64 4, ptr %15) #6
  br label %159

121:                                              ; preds = %116
  %122 = load ptr, ptr %11, align 8
  %123 = getelementptr inbounds nuw %struct.RenderPass, ptr %122, i32 0, i32 4
  %124 = load ptr, ptr %123, align 8
  %125 = icmp ne ptr %124, null
  br i1 %125, label %126, label %155

126:                                              ; preds = %121
  %127 = load ptr, ptr %11, align 8
  %128 = getelementptr inbounds nuw %struct.RenderPass, ptr %127, i32 0, i32 4
  %129 = load ptr, ptr %128, align 8
  %130 = load ptr, ptr %7, align 8
  %131 = load i32, ptr %15, align 4
  %132 = zext i32 %131 to i64
  %133 = getelementptr inbounds nuw ptr, ptr %130, i64 %132
  %134 = load ptr, ptr %133, align 8
  %135 = icmp eq ptr %129, %134
  br i1 %135, label %136, label %155

136:                                              ; preds = %126
  br label %137

137:                                              ; preds = %136
  br label %138

138:                                              ; preds = %150, %137
  br label %139

139:                                              ; preds = %138
  call void @llvm.lifetime.start.p0(i64 4, ptr %16) #6
  %140 = call i32 @SDL_ReportAssertion_REAL(ptr noundef @SDL_BindGPUVertexStorageTextures_REAL.sdl_assert_data.245, ptr noundef @__func__.SDL_BindGPUVertexStorageTextures_REAL, ptr noundef @.str.8, i32 noundef 1896)
  store i32 %140, ptr %16, align 4
  %141 = load i32, ptr %16, align 4
  %142 = icmp eq i32 %141, 0
  br i1 %142, label %143, label %144

143:                                              ; preds = %139
  store i32 21, ptr %10, align 4
  br label %150

144:                                              ; preds = %139
  %145 = load i32, ptr %16, align 4
  %146 = icmp eq i32 %145, 1
  br i1 %146, label %147, label %148

147:                                              ; preds = %144
  call void @llvm.debugtrap()
  br label %148

148:                                              ; preds = %147, %144
  br label %149

149:                                              ; preds = %148
  store i32 22, ptr %10, align 4
  br label %150

150:                                              ; preds = %149, %143
  call void @llvm.lifetime.end.p0(i64 4, ptr %16) #6
  %151 = load i32, ptr %10, align 4
  switch i32 %151, label %175 [
    i32 21, label %138
    i32 22, label %152
  ]

152:                                              ; preds = %150
  br label %153

153:                                              ; preds = %152
  br label %154

154:                                              ; preds = %153
  br label %155

155:                                              ; preds = %154, %126, %121
  br label %156

156:                                              ; preds = %155
  %157 = load i32, ptr %15, align 4
  %158 = add i32 %157, 1
  store i32 %158, ptr %15, align 4
  br label %116, !llvm.loop !24

159:                                              ; preds = %120
  call void @llvm.lifetime.end.p0(i64 8, ptr %11) #6
  br label %160

160:                                              ; preds = %159, %29
  %161 = load ptr, ptr %5, align 8
  %162 = getelementptr inbounds nuw %struct.RenderPass, ptr %161, i32 0, i32 0
  %163 = load ptr, ptr %162, align 8
  %164 = getelementptr inbounds nuw %struct.CommandBufferCommonHeader, ptr %163, i32 0, i32 0
  %165 = load ptr, ptr %164, align 8
  %166 = getelementptr inbounds nuw %struct.SDL_GPUDevice, ptr %165, i32 0, i32 30
  %167 = load ptr, ptr %166, align 8
  %168 = load ptr, ptr %5, align 8
  %169 = getelementptr inbounds nuw %struct.RenderPass, ptr %168, i32 0, i32 0
  %170 = load ptr, ptr %169, align 8
  %171 = load i32, ptr %6, align 4
  %172 = load ptr, ptr %7, align 8
  %173 = load i32, ptr %8, align 4
  call void %167(ptr noundef %170, i32 noundef %171, ptr noundef %172, i32 noundef %173)
  br label %174

174:                                              ; preds = %160, %59, %27, %19
  ret void

175:                                              ; preds = %150, %102, %56
  unreachable
}