; Function Attrs: nounwind uwtable
define hidden void @SDL_BindGPUVertexStorageTextures_REAL(ptr noundef readonly captures(address_is_null) %0, i32 noundef %1, ptr noundef %2, i32 noundef %3) local_unnamed_addr #0 {
  %5 = icmp eq ptr %0, null
  br i1 %5, label %6, label %8

6:                                                ; preds = %4
  %7 = tail call zeroext i1 (ptr, ...) @SDL_SetError_REAL(ptr noundef nonnull @.str.4, ptr noundef nonnull @.str.225) #7
  br label %.thread

8:                                                ; preds = %4
  %9 = icmp eq ptr %2, null
  %10 = icmp ne i32 %3, 0
  %or.cond = and i1 %9, %10
  br i1 %or.cond, label %11, label %13

11:                                               ; preds = %8
  %12 = tail call zeroext i1 (ptr, ...) @SDL_SetError_REAL(ptr noundef nonnull @.str.4, ptr noundef nonnull @.str.240) #7
  br label %.thread

13:                                               ; preds = %8
  %14 = load ptr, ptr %0, align 8
  %15 = load ptr, ptr %14, align 8
  %16 = getelementptr inbounds nuw i8, ptr %15, i64 684
  %17 = load i8, ptr %16, align 4, !range !5, !noundef !6
  %18 = trunc nuw i8 %17 to i1
  br i1 %18, label %19, label %.loopexit

19:                                               ; preds = %13
  %20 = getelementptr inbounds nuw i8, ptr %0, i64 8
  %21 = load i8, ptr %20, align 8, !range !5, !noundef !6
  %22 = trunc nuw i8 %21 to i1
  br i1 %22, label %.preheader63, label %.preheader64

.preheader63:                                     ; preds = %19
  %23 = getelementptr inbounds nuw i8, ptr %0, i64 48
  %24 = load i32, ptr %23, align 8
  %.not68 = icmp eq i32 %24, 0
  br i1 %.not68, label %.preheader60, label %.preheader62.lr.ph

.preheader62.lr.ph:                               ; preds = %.preheader63
  %.not69 = icmp eq i32 %3, 0
  %25 = getelementptr inbounds nuw i8, ptr %0, i64 16
  br i1 %.not69, label %.loopexit, label %.preheader62.us.preheader

.preheader62.us.preheader:                        ; preds = %.preheader62.lr.ph
  %wide.trip.count = zext i32 %3 to i64
  br label %.preheader62.us

.preheader62.us:                                  ; preds = %.preheader62.us.preheader, %._crit_edge.us
  %indvars.iv74 = phi i64 [ 0, %.preheader62.us.preheader ], [ %indvars.iv.next75, %._crit_edge.us ]
  %26 = getelementptr inbounds nuw [4 x ptr], ptr %25, i64 0, i64 %indvars.iv74
  br label %27

27:                                               ; preds = %.preheader62.us, %.thread52.us
  %indvars.iv = phi i64 [ 0, %.preheader62.us ], [ %indvars.iv.next, %.thread52.us ]
  %28 = load ptr, ptr %26, align 8
  %29 = getelementptr inbounds nuw ptr, ptr %2, i64 %indvars.iv
  %30 = load ptr, ptr %29, align 8
  %31 = icmp eq ptr %28, %30
  br i1 %31, label %.preheader61.us, label %.thread52.us

.preheader61.us:                                  ; preds = %27, %.preheader61.us
  %32 = tail call i32 @SDL_ReportAssertion_REAL(ptr noundef nonnull @SDL_BindGPUVertexStorageTextures_REAL.sdl_assert_data.242, ptr noundef nonnull @__func__.SDL_BindGPUVertexStorageTextures_REAL, ptr noundef nonnull @.str.8, i32 noundef 1896) #7
  switch i32 %32, label %.thread52.us [
    i32 0, label %.preheader61.us
    i32 1, label %33
  ]

33:                                               ; preds = %.preheader61.us
  tail call void @llvm.debugtrap()
  br label %.thread52.us

.thread52.us:                                     ; preds = %.preheader61.us, %33, %27
  %indvars.iv.next = add nuw nsw i64 %indvars.iv, 1
  %exitcond.not = icmp eq i64 %indvars.iv.next, %wide.trip.count
  br i1 %exitcond.not, label %._crit_edge.us, label %27, !llvm.loop !20

._crit_edge.us:                                   ; preds = %.thread52.us
  %indvars.iv.next75 = add nuw nsw i64 %indvars.iv74, 1
  %34 = load i32, ptr %23, align 8
  %35 = zext i32 %34 to i64
  %36 = icmp samesign ult i64 %indvars.iv.next75, %35
  br i1 %36, label %.preheader62.us, label %.preheader60, !llvm.loop !21

.preheader64:                                     ; preds = %19, %.preheader64
  %37 = tail call i32 @SDL_ReportAssertion_REAL(ptr noundef nonnull @SDL_BindGPUVertexStorageTextures_REAL.sdl_assert_data, ptr noundef nonnull @__func__.SDL_BindGPUVertexStorageTextures_REAL, ptr noundef nonnull @.str.8, i32 noundef 1895) #7
  switch i32 %37, label %.thread [
    i32 0, label %.preheader64
    i32 1, label %38
  ]

38:                                               ; preds = %.preheader64
  tail call void @llvm.debugtrap()
  br label %.thread

.preheader60:                                     ; preds = %._crit_edge.us, %.preheader63
  %.not70 = icmp eq i32 %3, 0
  br i1 %.not70, label %.loopexit, label %.lr.ph

.lr.ph:                                           ; preds = %.preheader60
  %39 = getelementptr inbounds nuw i8, ptr %0, i64 56
  %40 = load ptr, ptr %39, align 8
  %41 = icmp eq ptr %40, null
  br i1 %41, label %.loopexit, label %.lr.ph.split.preheader

.lr.ph.split.preheader:                           ; preds = %.lr.ph
  %wide.trip.count80 = zext i32 %3 to i64
  br label %.lr.ph.split

.lr.ph.splitthread-pre-split:                     ; preds = %.thread56
  %.pr = load ptr, ptr %39, align 8
  br label %.lr.ph.split

.lr.ph.split:                                     ; preds = %.lr.ph.splitthread-pre-split, %.lr.ph.split.preheader
  %42 = phi ptr [ %.pr, %.lr.ph.splitthread-pre-split ], [ %40, %.lr.ph.split.preheader ]
  %indvars.iv77 = phi i64 [ %indvars.iv.next78, %.lr.ph.splitthread-pre-split ], [ 0, %.lr.ph.split.preheader ]
  %.not = icmp eq ptr %42, null
  br i1 %.not, label %.thread56, label %43

43:                                               ; preds = %.lr.ph.split
  %44 = getelementptr inbounds nuw ptr, ptr %2, i64 %indvars.iv77
  %45 = load ptr, ptr %44, align 8
  %46 = icmp eq ptr %42, %45
  br i1 %46, label %.preheader, label %.thread56

.preheader:                                       ; preds = %43, %.preheader
  %47 = tail call i32 @SDL_ReportAssertion_REAL(ptr noundef nonnull @SDL_BindGPUVertexStorageTextures_REAL.sdl_assert_data.245, ptr noundef nonnull @__func__.SDL_BindGPUVertexStorageTextures_REAL, ptr noundef nonnull @.str.8, i32 noundef 1896) #7
  switch i32 %47, label %.thread56 [
    i32 0, label %.preheader
    i32 1, label %48
  ]

48:                                               ; preds = %.preheader
  tail call void @llvm.debugtrap()
  br label %.thread56

.thread56:                                        ; preds = %.preheader, %48, %.lr.ph.split, %43
  %indvars.iv.next78 = add nuw nsw i64 %indvars.iv77, 1
  %exitcond81.not = icmp eq i64 %indvars.iv.next78, %wide.trip.count80
  br i1 %exitcond81.not, label %.loopexit, label %.lr.ph.splitthread-pre-split, !llvm.loop !22

.loopexit:                                        ; preds = %.thread56, %.preheader62.lr.ph, %.lr.ph, %.preheader60, %13
  %49 = load ptr, ptr %0, align 8
  %50 = load ptr, ptr %49, align 8
  %51 = getelementptr inbounds nuw i8, ptr %50, i64 240
  %52 = load ptr, ptr %51, align 8
  tail call void %52(ptr noundef nonnull %49, i32 noundef %1, ptr noundef %2, i32 noundef %3) #7
  br label %.thread

.thread:                                          ; preds = %.preheader64, %38, %.loopexit, %11, %6
  ret void
}